target datalayout = "e-m:e-p270:32:32-p271:32:32-p272:64:64-i64:64-i128:128-f80:128-n8:16:32:64-S128"
target triple = "x86_64-pc-linux-gnu"

%struct.AVChannelLayout = type { i32, i32, %union.anon.0, ptr }
%union.anon.0 = type { i64 }
%struct.AVCodecContext = type { ptr, i32, i32, ptr, i32, i32, ptr, ptr, ptr, i64, i32, i32, ptr, i32, %struct.AVRational, %struct.AVRational, %struct.AVRational, i32, i32, i32, i32, i32, %struct.AVRational, i32, i32, i32, i32, i32, i32, i32, i32, i32, i32, i32, ptr, ptr, i32, float, float, float, float, float, float, float, float, float, i32, i32, i32, i32, i32, i32, i32, i32, i32, i32, i32, i32, ptr, ptr, ptr, i32, i32, i32, i32, i32, i32, i32, i32, i32, i32, %struct.AVChannelLayout, i32, i32, i32, i32, i32, i32, i32, i32, ptr, i32, i32, i32, float, float, i32, i32, i32, i32, i32, ptr, i64, i64, float, float, i32, i32, ptr, ptr, i32, i32, i32, i32, i32, ptr, ptr, ptr, ptr, i32, i32, [8 x i64], i32, i32, i32, i32, i32, i32, i32, ptr, ptr, i32, i32, i32, i32, i32, i32, i32, i32, i32, i32, ptr, ptr, i32, i32, ptr, ptr, ptr, ptr, i32, i32, i64, i32, i32, i64, ptr, i64, ptr, i32, ptr, i32 }
%struct.AVRational = type { i32, i32 }
%struct.CinAudioContext = type { i32, i32 }

; Function Attrs: cold nounwind optsize uwtable
define internal i32 @cinaudio_decode_init(ptr noundef %0) #0 {
  %2 = alloca ptr, align 8
  %3 = alloca ptr, align 8
  %4 = alloca %struct.AVChannelLayout, align 8
  store ptr %0, ptr %2, align 8, !tbaa !4
  call void @llvm.lifetime.start.p0(i64 8, ptr %3) #7
  %5 = load ptr, ptr %2, align 8, !tbaa !4
  %6 = getelementptr inbounds nuw %struct.AVCodecContext, ptr %5, i32 0, i32 6
  %7 = load ptr, ptr %6, align 8, !tbaa !9
  store ptr %7, ptr %3, align 8, !tbaa !29
  %8 = load ptr, ptr %3, align 8, !tbaa !29
  %9 = getelementptr inbounds nuw %struct.CinAudioContext, ptr %8, i32 0, i32 0
  store i32 1, ptr %9, align 4, !tbaa !31
  %10 = load ptr, ptr %3, align 8, !tbaa !29
  %11 = getelementptr inbounds nuw %struct.CinAudioContext, ptr %10, i32 0, i32 1
  store i32 0, ptr %11, align 4, !tbaa !33
  %12 = load ptr, ptr %2, align 8, !tbaa !4
  %13 = getelementptr inbounds nuw %struct.AVCodecContext, ptr %12, i32 0, i32 70
  store i32 1, ptr %13, align 4, !tbaa !34
  %14 = load ptr, ptr %2, align 8, !tbaa !4
  %15 = getelementptr inbounds nuw %struct.AVCodecContext, ptr %14, i32 0, i32 71
  call void @av_channel_layout_uninit(ptr noundef %15)
  %16 = load ptr, ptr %2, align 8, !tbaa !4
  %17 = getelementptr inbounds nuw %struct.AVCodecContext, ptr %16, i32 0, i32 71
  %18 = getelementptr inbounds nuw %struct.AVChannelLayout, ptr %4, i32 0, i32 0
  store i32 1, ptr %18, align 8, !tbaa !35
  %19 = getelementptr inbounds nuw %struct.AVChannelLayout, ptr %4, i32 0, i32 1
  store i32 1, ptr %19, align 4, !tbaa !36
  %20 = getelementptr inbounds nuw %struct.AVChannelLayout, ptr %4, i32 0, i32 2
  store i64 4, ptr %20, align 8, !tbaa !37
  %21 = getelementptr inbounds nuw %struct.AVChannelLayout, ptr %4, i32 0, i32 3
  store ptr null, ptr %21, align 8, !tbaa !38
  call void @llvm.memcpy.p0.p0.i64(ptr align 8 %17, ptr align 8 %4, i64 24, i1 false), !tbaa.struct !39
  call void @llvm.lifetime.end.p0(i64 8, ptr %3) #7
  ret i32 0
}