; Function Attrs: cold nounwind optsize uwtable
define internal noundef i32 @cinaudio_decode_init(ptr noundef initializes((348, 352)) %0) #0 {
  %2 = getelementptr inbounds nuw i8, ptr %0, i64 32
  %3 = load ptr, ptr %2, align 8, !tbaa !4
  store i32 1, ptr %3, align 4, !tbaa !27
  %4 = getelementptr inbounds nuw i8, ptr %3, i64 4
  store i32 0, ptr %4, align 4, !tbaa !29
  %5 = getelementptr inbounds nuw i8, ptr %0, i64 348
  store i32 1, ptr %5, align 4, !tbaa !30
  %6 = getelementptr inbounds nuw i8, ptr %0, i64 352
  tail call void @av_channel_layout_uninit(ptr noundef nonnull %6) #4
  store i32 1, ptr %6, align 8, !tbaa !31
  %.sroa.2.0..sroa_idx = getelementptr inbounds nuw i8, ptr %0, i64 356
  store i32 1, ptr %.sroa.2.0..sroa_idx, align 4, !tbaa !31
  %.sroa.3.0..sroa_idx = getelementptr inbounds nuw i8, ptr %0, i64 360
  store i64 4, ptr %.sroa.3.0..sroa_idx, align 8, !tbaa !32
  %.sroa.4.0..sroa_idx = getelementptr inbounds nuw i8, ptr %0, i64 368
  store ptr null, ptr %.sroa.4.0..sroa_idx, align 8, !tbaa !33
  ret i32 0
}